; Function Attrs: mustprogress uwtable
define void @_ZN8proxygen10HTTP2Codec16generateExHeaderERN5folly10IOBufQueueEmRKNS_11HTTPMessageERKNS_9HTTPCodec12ExAttributesEbPNS_14HTTPHeaderSizeE(ptr noundef nonnull align 8 dereferenceable(1062) %this, ptr noundef nonnull align 8 dereferenceable(72) %writeBuf, i64 noundef %stream, ptr noundef nonnull align 8 dereferenceable(616) %msg, ptr nocapture noundef nonnull readonly align 8 dereferenceable(9) %exAttributes, i1 noundef zeroext %eom, ptr noundef %size) unnamed_addr #3 align 2 personality ptr @__gxx_personality_v0 {
entry:
  %ref.tmp = alloca %"class.folly::Optional", align 8
  %ref.tmp2 = alloca %"class.folly::Optional.48", align 8
  %ref.tmp3 = alloca %"class.folly::Optional.120", align 8
  store i8 0, ptr %ref.tmp, align 8
  %hasValue.i.i = getelementptr inbounds i8, ptr %ref.tmp, i64 8
  store i8 0, ptr %hasValue.i.i, align 8
  %hasValue.i.i1 = getelementptr inbounds i8, ptr %ref.tmp2, i64 16
  call void @llvm.memcpy.p0.p0.i64(ptr noundef nonnull align 8 dereferenceable(16) %ref.tmp2, ptr noundef nonnull align 8 dereferenceable(16) %exAttributes, i64 16, i1 false)
  store i8 1, ptr %hasValue.i.i1, align 8
  %hasValue.i.i2 = getelementptr inbounds i8, ptr %ref.tmp3, i64 32
  store i8 0, ptr %hasValue.i.i2, align 8
  invoke void @_ZN8proxygen10HTTP2Codec18generateHeaderImplERN5folly10IOBufQueueEmRKNS_11HTTPMessageERKNS1_8OptionalImEERKNS7_INS_9HTTPCodec12ExAttributesEEEbPNS_14HTTPHeaderSizeERKNS7_INS_11HTTPHeadersEEE(ptr noundef nonnull align 8 dereferenceable(1062) %this, ptr noundef nonnull align 8 dereferenceable(72) %writeBuf, i64 noundef %stream, ptr noundef nonnull align 8 dereferenceable(616) %msg, ptr noundef nonnull align 8 dereferenceable(16) %ref.tmp, ptr noundef nonnull align 8 dereferenceable(24) %ref.tmp2, i1 noundef zeroext %eom, ptr noundef %size, ptr noundef nonnull align 8 dereferenceable(40) %ref.tmp3)
          to label %invoke.cont unwind label %lpad

invoke.cont:                                      ; preds = %entry
  %0 = load i8, ptr %hasValue.i.i2, align 8
  %1 = and i8 %0, 1
  %tobool.not.i.i.i = icmp eq i8 %1, 0
  br i1 %tobool.not.i.i.i, label %_ZN5folly8OptionalIN8proxygen11HTTPHeadersEED2Ev.exit, label %if.then.i.i.i

if.then.i.i.i:                                    ; preds = %invoke.cont
  store i8 0, ptr %hasValue.i.i2, align 8
  call void @_ZN8proxygen11HTTPHeadersD1Ev(ptr noundef nonnull align 8 dereferenceable(32) %ref.tmp3) #27
  br label %_ZN5folly8OptionalIN8proxygen11HTTPHeadersEED2Ev.exit

_ZN5folly8OptionalIN8proxygen11HTTPHeadersEED2Ev.exit: ; preds = %invoke.cont, %if.then.i.i.i
  ret void

lpad:                                             ; preds = %entry
  %2 = landingpad { ptr, i32 }
          cleanup
  %3 = load i8, ptr %hasValue.i.i2, align 8
  %4 = and i8 %3, 1
  %tobool.not.i.i.i4 = icmp eq i8 %4, 0
  br i1 %tobool.not.i.i.i4, label %_ZN5folly8OptionalIN8proxygen11HTTPHeadersEED2Ev.exit6, label %if.then.i.i.i5

if.then.i.i.i5:                                   ; preds = %lpad
  store i8 0, ptr %hasValue.i.i2, align 8
  call void @_ZN8proxygen11HTTPHeadersD1Ev(ptr noundef nonnull align 8 dereferenceable(32) %ref.tmp3) #27
  br label %_ZN5folly8OptionalIN8proxygen11HTTPHeadersEED2Ev.exit6

_ZN5folly8OptionalIN8proxygen11HTTPHeadersEED2Ev.exit6: ; preds = %lpad, %if.then.i.i.i5
  resume { ptr, i32 } %2
}